; Function Attrs: mustprogress uwtable
define internal void @_ZN11opencv_testL43gtest_Size_Source_calcHist3d_EvalGenerator_Ev(ptr dead_on_unwind noalias writable sret(%"class.testing::internal::ParamGenerator") align 8 %0) #4 {
  %2 = alloca %"class.testing::internal::CartesianProductHolder2", align 8
  call void @llvm.lifetime.start.p0(i64 28, ptr nonnull %2) #30
  %.sroa.01.0.copyload = load i64, ptr @_ZN4perfL5sz3MPE, align 8
  %.sroa.0.0.copyload = load i64, ptr @_ZN4perfL5sz5MPE, align 8
  store i64 %.sroa.01.0.copyload, ptr %2, align 8, !alias.scope !121
  %3 = getelementptr inbounds nuw i8, ptr %2, i64 8
  store i64 %.sroa.0.0.copyload, ptr %3, align 8, !alias.scope !121
  %4 = getelementptr inbounds nuw i8, ptr %2, i64 16
  store i32 16, ptr %4, align 8, !tbaa !73, !alias.scope !121
  %5 = getelementptr inbounds nuw i8, ptr %2, i64 20
  store i32 18, ptr %5, align 4, !tbaa !75, !alias.scope !121
  %6 = getelementptr inbounds nuw i8, ptr %2, i64 24
  store i32 21, ptr %6, align 8, !tbaa !76, !alias.scope !121
  call void @_ZNK7testing8internal23CartesianProductHolder2INS0_11ValueArray2IN2cv5Size_IiEES5_EENS0_11ValueArray3IiiiEEEcvNS0_14ParamGeneratorISt5tupleIJT_T0_EEEEIS5_N4perf7MatTypeEEEv(ptr dead_on_unwind writable sret(%"class.testing::internal::ParamGenerator") align 8 %0, ptr noundef nonnull align 4 dereferenceable(28) %2)
  call void @llvm.lifetime.end.p0(i64 28, ptr nonnull %2) #30
  ret void
}